(dp0
Vengine
p1
Vxelatex
p2
sVpackages
p3
c__builtin__
set
p4
((lp5
Vhyperref
p6
aVifluatex
p7
aVlmodern
p8
aVamsmath
p9
aVinputenc
p10
aVfontspec
p11
aVupquote
p12
aVamssymb
p13
aVfixltx2e
p14
aVfontenc
p15
aVmathspec
p16
aVifxetex
p17
aVparskip
p18
atp19
Rp20
sVfiles_with_guttermarks
p21
g4
((lp22
S'socolfil-descartes.latex'
p23
atp24
Rp25
sVsynctex
p26
I01
s.